target datalayout = "e-m:e-p270:32:32-p271:32:32-p272:64:64-i64:64-i128:128-f80:128-n8:16:32:64-S128"
target triple = "x86_64-pc-linux-gnu"

%struct.hiredisAllocFuncs = type { ptr, ptr, ptr, ptr, ptr }
%struct.redisReply = type { i32, i64, double, i64, ptr, [4 x i8], i64, ptr }
%struct.redisReadTask = type { i32, i64, i32, ptr, ptr, ptr }

@hiredisAllocFns = external global %struct.hiredisAllocFuncs, align 8

; Function Attrs: inlinehint nounwind uwtable
define internal ptr @hi_calloc(i64 noundef %0, i64 noundef %1) #2 {
  %3 = alloca ptr, align 8
  %4 = alloca i64, align 8
  %5 = alloca i64, align 8
  store i64 %0, ptr %4, align 8, !tbaa !19
  store i64 %1, ptr %5, align 8, !tbaa !19
  %6 = load i64, ptr %5, align 8, !tbaa !19
  %7 = udiv i64 -1, %6
  %8 = load i64, ptr %4, align 8, !tbaa !19
  %9 = icmp ult i64 %7, %8
  br i1 %9, label %10, label %11

10:                                               ; preds = %2
  store ptr null, ptr %3, align 8
  br label %16

11:                                               ; preds = %2
  %12 = load ptr, ptr getelementptr inbounds nuw (%struct.hiredisAllocFuncs, ptr @hiredisAllocFns, i32 0, i32 1), align 8, !tbaa !97
  %13 = load i64, ptr %4, align 8, !tbaa !19
  %14 = load i64, ptr %5, align 8, !tbaa !19
  %15 = call ptr %12(i64 noundef %13, i64 noundef %14)
  store ptr %15, ptr %3, align 8
  br label %16

16:                                               ; preds = %11, %10
  %17 = load ptr, ptr %3, align 8
  ret ptr %17
}

; Function Attrs: nounwind uwtable
define internal ptr @createReplyObject(i32 noundef %0) #0 {
  %2 = alloca ptr, align 8
  %3 = alloca i32, align 4
  %4 = alloca ptr, align 8
  %5 = alloca i32, align 4
  store i32 %0, ptr %3, align 4, !tbaa !29
  call void @llvm.lifetime.start.p0(i64 8, ptr %4) #10
  %6 = call ptr @hi_calloc(i64 noundef 1, i64 noundef 64)
  store ptr %6, ptr %4, align 8, !tbaa !8
  %7 = load ptr, ptr %4, align 8, !tbaa !8
  %8 = icmp eq ptr %7, null
  br i1 %8, label %9, label %10

9:                                                ; preds = %1
  store ptr null, ptr %2, align 8
  store i32 1, ptr %5, align 4
  br label %15

10:                                               ; preds = %1
  %11 = load i32, ptr %3, align 4, !tbaa !29
  %12 = load ptr, ptr %4, align 8, !tbaa !8
  %13 = getelementptr inbounds nuw %struct.redisReply, ptr %12, i32 0, i32 0
  store i32 %11, ptr %13, align 8, !tbaa !10
  %14 = load ptr, ptr %4, align 8, !tbaa !8
  store ptr %14, ptr %2, align 8
  store i32 1, ptr %5, align 4
  br label %15

15:                                               ; preds = %10, %9
  call void @llvm.lifetime.end.p0(i64 8, ptr %4) #10
  %16 = load ptr, ptr %2, align 8
  ret ptr %16
}

; Function Attrs: nounwind uwtable
define internal ptr @createNilObject(ptr noundef %0) #0 {
  %2 = alloca ptr, align 8
  %3 = alloca ptr, align 8
  %4 = alloca ptr, align 8
  %5 = alloca ptr, align 8
  %6 = alloca i32, align 4
  store ptr %0, ptr %3, align 8, !tbaa !86
  call void @llvm.lifetime.start.p0(i64 8, ptr %4) #10
  call void @llvm.lifetime.start.p0(i64 8, ptr %5) #10
  %7 = call ptr @createReplyObject(i32 noundef 4)
  store ptr %7, ptr %4, align 8, !tbaa !8
  %8 = load ptr, ptr %4, align 8, !tbaa !8
  %9 = icmp eq ptr %8, null
  br i1 %9, label %10, label %11

10:                                               ; preds = %1
  store ptr null, ptr %2, align 8
  store i32 1, ptr %6, align 4
  br label %33

11:                                               ; preds = %1
  %12 = load ptr, ptr %3, align 8, !tbaa !86
  %13 = getelementptr inbounds nuw %struct.redisReadTask, ptr %12, i32 0, i32 4
  %14 = load ptr, ptr %13, align 8, !tbaa !91
  %15 = icmp ne ptr %14, null
  br i1 %15, label %16, label %31

16:                                               ; preds = %11
  %17 = load ptr, ptr %3, align 8, !tbaa !86
  %18 = getelementptr inbounds nuw %struct.redisReadTask, ptr %17, i32 0, i32 4
  %19 = load ptr, ptr %18, align 8, !tbaa !91
  %20 = getelementptr inbounds nuw %struct.redisReadTask, ptr %19, i32 0, i32 3
  %21 = load ptr, ptr %20, align 8, !tbaa !92
  store ptr %21, ptr %5, align 8, !tbaa !8
  %22 = load ptr, ptr %4, align 8, !tbaa !8
  %23 = load ptr, ptr %5, align 8, !tbaa !8
  %24 = getelementptr inbounds nuw %struct.redisReply, ptr %23, i32 0, i32 7
  %25 = load ptr, ptr %24, align 8, !tbaa !18
  %26 = load ptr, ptr %3, align 8, !tbaa !86
  %27 = getelementptr inbounds nuw %struct.redisReadTask, ptr %26, i32 0, i32 2
  %28 = load i32, ptr %27, align 8, !tbaa !93
  %29 = sext i32 %28 to i64
  %30 = getelementptr inbounds ptr, ptr %25, i64 %29
  store ptr %22, ptr %30, align 8, !tbaa !8
  br label %31

31:                                               ; preds = %16, %11
  %32 = load ptr, ptr %4, align 8, !tbaa !8
  store ptr %32, ptr %2, align 8
  store i32 1, ptr %6, align 4
  br label %33

33:                                               ; preds = %31, %10
  call void @llvm.lifetime.end.p0(i64 8, ptr %5) #10
  call void @llvm.lifetime.end.p0(i64 8, ptr %4) #10
  %34 = load ptr, ptr %2, align 8
  ret ptr %34
}