; Function Attrs: nounwind uwtable
define internal ptr @createNilObject(ptr noundef readonly captures(none) %0) #0 {
  %2 = load ptr, ptr getelementptr inbounds nuw (i8, ptr @hiredisAllocFns, i64 8), align 8, !tbaa !59
  %3 = tail call ptr %2(i64 noundef 1, i64 noundef 64) #13
  %4 = icmp eq ptr %3, null
  br i1 %4, label %createReplyObject.exit.thread, label %5

5:                                                ; preds = %1
  store i32 4, ptr %3, align 8, !tbaa !4
  %6 = getelementptr inbounds nuw i8, ptr %0, i64 32
  %7 = load ptr, ptr %6, align 8, !tbaa !80
  %.not = icmp eq ptr %7, null
  br i1 %.not, label %createReplyObject.exit.thread, label %8

8:                                                ; preds = %5
  %9 = getelementptr inbounds nuw i8, ptr %7, i64 24
  %10 = load ptr, ptr %9, align 8, !tbaa !81
  %11 = getelementptr inbounds nuw i8, ptr %10, i64 56
  %12 = load ptr, ptr %11, align 8, !tbaa !15
  %13 = getelementptr inbounds nuw i8, ptr %0, i64 16
  %14 = load i32, ptr %13, align 8, !tbaa !82
  %15 = sext i32 %14 to i64
  %16 = getelementptr inbounds ptr, ptr %12, i64 %15
  store ptr %3, ptr %16, align 8, !tbaa !17
  br label %createReplyObject.exit.thread

createReplyObject.exit.thread:                    ; preds = %1, %5, %8
  ret ptr %3
}